; Function Attrs: nounwind uwtable
define internal i32 @aes_ccm_ctrl(ptr noundef %0, i32 noundef %1, i32 noundef %2, ptr noundef %3) #2 {
  %5 = tail call ptr @EVP_CIPHER_CTX_get_cipher_data(ptr noundef %0) #8
  switch i32 %1, label %99 [
    i32 0, label %6
    i32 37, label %14
    i32 22, label %18
    i32 18, label %54
    i32 9, label %58
    i32 20, label %60
    i32 17, label %64
    i32 16, label %80
    i32 8, label %92
  ]

6:                                                ; preds = %4
  %7 = getelementptr inbounds nuw i8, ptr %5, i64 248
  store i32 0, ptr %7, align 8, !tbaa !50
  %8 = getelementptr inbounds nuw i8, ptr %5, i64 252
  store i32 0, ptr %8, align 4, !tbaa !51
  %9 = getelementptr inbounds nuw i8, ptr %5, i64 264
  store i32 8, ptr %9, align 8, !tbaa !48
  %10 = getelementptr inbounds nuw i8, ptr %5, i64 268
  store i32 12, ptr %10, align 4, !tbaa !44
  %11 = getelementptr inbounds nuw i8, ptr %5, i64 256
  store i32 0, ptr %11, align 8, !tbaa !54
  %12 = getelementptr inbounds nuw i8, ptr %5, i64 260
  store i32 0, ptr %12, align 4, !tbaa !53
  %13 = getelementptr inbounds nuw i8, ptr %5, i64 272
  store i32 -1, ptr %13, align 8, !tbaa !52
  br label %99

14:                                               ; preds = %4
  %15 = getelementptr inbounds nuw i8, ptr %5, i64 264
  %16 = load i32, ptr %15, align 8, !tbaa !48
  %17 = sub nsw i32 15, %16
  store i32 %17, ptr %3, align 4, !tbaa !3
  br label %99

18:                                               ; preds = %4
  %.not94 = icmp eq i32 %2, 13
  br i1 %.not94, label %19, label %99

19:                                               ; preds = %18
  %20 = tail call ptr @EVP_CIPHER_CTX_buf_noconst(ptr noundef %0) #8
  tail call void @llvm.memcpy.p0.p0.i64(ptr noundef nonnull align 1 dereferenceable(13) %20, ptr noundef nonnull align 1 dereferenceable(13) %3, i64 13, i1 false)
  %21 = getelementptr inbounds nuw i8, ptr %5, i64 272
  store i32 13, ptr %21, align 8, !tbaa !52
  %22 = tail call ptr @EVP_CIPHER_CTX_buf_noconst(ptr noundef %0) #8
  %23 = getelementptr inbounds nuw i8, ptr %22, i64 11
  %24 = load i8, ptr %23, align 1, !tbaa !10
  %25 = zext i8 %24 to i32
  %26 = shl nuw nsw i32 %25, 8
  %27 = tail call ptr @EVP_CIPHER_CTX_buf_noconst(ptr noundef %0) #8
  %28 = getelementptr inbounds nuw i8, ptr %27, i64 12
  %29 = load i8, ptr %28, align 1, !tbaa !10
  %30 = zext i8 %29 to i32
  %31 = or disjoint i32 %26, %30
  %32 = icmp samesign ult i32 %31, 8
  br i1 %32, label %99, label %33

33:                                               ; preds = %19
  %34 = trunc nuw i32 %31 to i16
  %35 = add i16 %34, -8
  %36 = tail call i32 @EVP_CIPHER_CTX_is_encrypting(ptr noundef %0) #8
  %.not95 = icmp eq i32 %36, 0
  br i1 %.not95, label %37, label %.critedge

37:                                               ; preds = %33
  %38 = zext i16 %35 to i32
  %39 = getelementptr inbounds nuw i8, ptr %5, i64 268
  %40 = load i32, ptr %39, align 4, !tbaa !44
  %41 = icmp sgt i32 %40, %38
  br i1 %41, label %99, label %42

42:                                               ; preds = %37
  %43 = trunc i32 %40 to i16
  %44 = sub i16 %35, %43
  br label %.critedge

.critedge:                                        ; preds = %42, %33
  %.080 = phi i16 [ %35, %33 ], [ %44, %42 ]
  %45 = lshr i16 %.080, 8
  %46 = trunc nuw i16 %45 to i8
  %47 = tail call ptr @EVP_CIPHER_CTX_buf_noconst(ptr noundef %0) #8
  %48 = getelementptr inbounds nuw i8, ptr %47, i64 11
  store i8 %46, ptr %48, align 1, !tbaa !10
  %49 = trunc i16 %.080 to i8
  %50 = tail call ptr @EVP_CIPHER_CTX_buf_noconst(ptr noundef %0) #8
  %51 = getelementptr inbounds nuw i8, ptr %50, i64 12
  store i8 %49, ptr %51, align 1, !tbaa !10
  %52 = getelementptr inbounds nuw i8, ptr %5, i64 268
  %53 = load i32, ptr %52, align 4, !tbaa !44
  br label %99

54:                                               ; preds = %4
  %.not93 = icmp eq i32 %2, 4
  br i1 %.not93, label %55, label %99

55:                                               ; preds = %54
  %56 = getelementptr inbounds nuw i8, ptr %0, i64 40
  %57 = load i32, ptr %3, align 1
  store i32 %57, ptr %56, align 8
  br label %99

58:                                               ; preds = %4
  %59 = sub nsw i32 15, %2
  br label %60

60:                                               ; preds = %58, %4
  %.079 = phi i32 [ %2, %4 ], [ %59, %58 ]
  %61 = add i32 %.079, -9
  %or.cond = icmp ult i32 %61, -7
  br i1 %or.cond, label %99, label %62

62:                                               ; preds = %60
  %63 = getelementptr inbounds nuw i8, ptr %5, i64 264
  store i32 %.079, ptr %63, align 8, !tbaa !48
  br label %99

64:                                               ; preds = %4
  %65 = and i32 %2, 1
  %66 = icmp ne i32 %65, 0
  %67 = add i32 %2, -17
  %68 = icmp ult i32 %67, -13
  %or.cond5 = or i1 %66, %68
  br i1 %or.cond5, label %99, label %69

69:                                               ; preds = %64
  %70 = tail call i32 @EVP_CIPHER_CTX_is_encrypting(ptr noundef %0) #8
  %71 = icmp ne i32 %70, 0
  %72 = icmp ne ptr %3, null
  %or.cond7 = and i1 %72, %71
  br i1 %or.cond7, label %99, label %73

73:                                               ; preds = %69
  br i1 %72, label %74, label %78

74:                                               ; preds = %73
  %75 = getelementptr inbounds nuw i8, ptr %5, i64 256
  store i32 1, ptr %75, align 8, !tbaa !54
  %76 = tail call ptr @EVP_CIPHER_CTX_buf_noconst(ptr noundef %0) #8
  %77 = zext nneg i32 %2 to i64
  tail call void @llvm.memcpy.p0.p0.i64(ptr align 1 %76, ptr nonnull align 1 %3, i64 %77, i1 false)
  br label %78

78:                                               ; preds = %74, %73
  %79 = getelementptr inbounds nuw i8, ptr %5, i64 268
  store i32 %2, ptr %79, align 4, !tbaa !44
  br label %99

80:                                               ; preds = %4
  %81 = tail call i32 @EVP_CIPHER_CTX_is_encrypting(ptr noundef %0) #8
  %.not90 = icmp eq i32 %81, 0
  br i1 %.not90, label %99, label %82

82:                                               ; preds = %80
  %83 = getelementptr inbounds nuw i8, ptr %5, i64 256
  %84 = load i32, ptr %83, align 8, !tbaa !54
  %.not91 = icmp eq i32 %84, 0
  br i1 %.not91, label %99, label %85

85:                                               ; preds = %82
  %86 = getelementptr inbounds nuw i8, ptr %5, i64 280
  %87 = sext i32 %2 to i64
  %88 = tail call i64 @CRYPTO_ccm128_tag(ptr noundef nonnull %86, ptr noundef %3, i64 noundef %87) #8
  %.not92 = icmp eq i64 %88, 0
  br i1 %.not92, label %99, label %89

89:                                               ; preds = %85
  store i32 0, ptr %83, align 8, !tbaa !54
  %90 = getelementptr inbounds nuw i8, ptr %5, i64 252
  store i32 0, ptr %90, align 4, !tbaa !51
  %91 = getelementptr inbounds nuw i8, ptr %5, i64 260
  store i32 0, ptr %91, align 4, !tbaa !53
  br label %99

92:                                               ; preds = %4
  %93 = tail call ptr @EVP_CIPHER_CTX_get_cipher_data(ptr noundef %3) #8
  %94 = getelementptr inbounds nuw i8, ptr %5, i64 328
  %95 = load ptr, ptr %94, align 8, !tbaa !55
  %.not = icmp eq ptr %95, null
  br i1 %.not, label %99, label %96

96:                                               ; preds = %92
  %.not89 = icmp eq ptr %95, %5
  br i1 %.not89, label %97, label %99

97:                                               ; preds = %96
  %98 = getelementptr inbounds nuw i8, ptr %93, i64 328
  store ptr %93, ptr %98, align 8, !tbaa !55
  br label %99

99:                                               ; preds = %4, %96, %97, %92, %85, %80, %82, %69, %64, %60, %54, %19, %37, %18, %89, %78, %62, %55, %.critedge, %14, %6
  %.0 = phi i32 [ 1, %89 ], [ 1, %78 ], [ 1, %62 ], [ 1, %55 ], [ %53, %.critedge ], [ 1, %14 ], [ 1, %6 ], [ 0, %18 ], [ 0, %37 ], [ 0, %19 ], [ 0, %54 ], [ 0, %60 ], [ 0, %64 ], [ 0, %69 ], [ 0, %82 ], [ 0, %80 ], [ 0, %85 ], [ 0, %96 ], [ 1, %97 ], [ 1, %92 ], [ -1, %4 ]
  ret i32 %.0
}